target datalayout = "e-m:e-p270:32:32-p271:32:32-p272:64:64-i64:64-i128:128-f80:128-n8:16:32:64-S128"
target triple = "x86_64-pc-linux-gnu"

%union.anon = type { i32 }
%struct.Header = type { i32, i32 }

@native = internal constant %union.anon { i32 1 }, align 4
@.str.14 = private unnamed_addr constant [29 x i8] c"option 's' has no fixed size\00", align 1
@.str.15 = private unnamed_addr constant [30 x i8] c"option 'c0' has no fixed size\00", align 1

; Function Attrs: nounwind uwtable
define internal i32 @gettoalign(i64 noundef %0, ptr noundef %1, i32 noundef %2, i64 noundef %3) #0 {
  %5 = alloca i32, align 4
  %6 = alloca i64, align 8
  %7 = alloca ptr, align 8
  %8 = alloca i32, align 4
  %9 = alloca i64, align 8
  store i64 %0, ptr %6, align 8, !tbaa !13
  store ptr %1, ptr %7, align 8, !tbaa !36
  store i32 %2, ptr %8, align 4, !tbaa !11
  store i64 %3, ptr %9, align 8, !tbaa !13
  %10 = load i64, ptr %9, align 8, !tbaa !13
  %11 = icmp eq i64 %10, 0
  br i1 %11, label %15, label %12

12:                                               ; preds = %4
  %13 = load i32, ptr %8, align 4, !tbaa !11
  %14 = icmp eq i32 %13, 99
  br i1 %14, label %15, label %16

15:                                               ; preds = %12, %4
  store i32 0, ptr %5, align 4
  br label %39

16:                                               ; preds = %12
  %17 = load i64, ptr %9, align 8, !tbaa !13
  %18 = load ptr, ptr %7, align 8, !tbaa !36
  %19 = getelementptr inbounds nuw %struct.Header, ptr %18, i32 0, i32 1
  %20 = load i32, ptr %19, align 4, !tbaa !18
  %21 = sext i32 %20 to i64
  %22 = icmp ugt i64 %17, %21
  br i1 %22, label %23, label %28

23:                                               ; preds = %16
  %24 = load ptr, ptr %7, align 8, !tbaa !36
  %25 = getelementptr inbounds nuw %struct.Header, ptr %24, i32 0, i32 1
  %26 = load i32, ptr %25, align 4, !tbaa !18
  %27 = sext i32 %26 to i64
  store i64 %27, ptr %9, align 8, !tbaa !13
  br label %28

28:                                               ; preds = %23, %16
  %29 = load i64, ptr %9, align 8, !tbaa !13
  %30 = load i64, ptr %6, align 8, !tbaa !13
  %31 = load i64, ptr %9, align 8, !tbaa !13
  %32 = sub i64 %31, 1
  %33 = and i64 %30, %32
  %34 = sub i64 %29, %33
  %35 = load i64, ptr %9, align 8, !tbaa !13
  %36 = sub i64 %35, 1
  %37 = and i64 %34, %36
  %38 = trunc i64 %37 to i32
  store i32 %38, ptr %5, align 4
  br label %39

39:                                               ; preds = %28, %15
  %40 = load i32, ptr %5, align 4
  ret i32 %40
}

; Function Attrs: nounwind uwtable
define internal i32 @b_size(ptr noundef %0) #0 {
  %2 = alloca ptr, align 8
  %3 = alloca %struct.Header, align 4
  %4 = alloca ptr, align 8
  %5 = alloca i64, align 8
  %6 = alloca i32, align 4
  %7 = alloca i64, align 8
  store ptr %0, ptr %2, align 8, !tbaa !4
  call void @llvm.lifetime.start.p0(i64 8, ptr %3) #6
  call void @llvm.lifetime.start.p0(i64 8, ptr %4) #6
  %8 = load ptr, ptr %2, align 8, !tbaa !4
  %9 = call ptr @luaL_checklstring(ptr noundef %8, i32 noundef 1, ptr noundef null)
  store ptr %9, ptr %4, align 8, !tbaa !9
  call void @llvm.lifetime.start.p0(i64 8, ptr %5) #6
  store i64 0, ptr %5, align 8, !tbaa !13
  %10 = load i8, ptr @native, align 4, !tbaa !15
  %11 = sext i8 %10 to i32
  %12 = getelementptr inbounds nuw %struct.Header, ptr %3, i32 0, i32 0
  store i32 %11, ptr %12, align 4, !tbaa !16
  %13 = getelementptr inbounds nuw %struct.Header, ptr %3, i32 0, i32 1
  store i32 1, ptr %13, align 4, !tbaa !18
  br label %14

14:                                               ; preds = %62, %1
  %15 = load ptr, ptr %4, align 8, !tbaa !9
  %16 = load i8, ptr %15, align 1, !tbaa !15
  %17 = icmp ne i8 %16, 0
  br i1 %17, label %18, label %66

18:                                               ; preds = %14
  call void @llvm.lifetime.start.p0(i64 4, ptr %6) #6
  %19 = load ptr, ptr %4, align 8, !tbaa !9
  %20 = getelementptr inbounds nuw i8, ptr %19, i32 1
  store ptr %20, ptr %4, align 8, !tbaa !9
  %21 = load i8, ptr %19, align 1, !tbaa !15
  %22 = sext i8 %21 to i32
  store i32 %22, ptr %6, align 4, !tbaa !11
  call void @llvm.lifetime.start.p0(i64 8, ptr %7) #6
  %23 = load ptr, ptr %2, align 8, !tbaa !4
  %24 = load i32, ptr %6, align 4, !tbaa !11
  %25 = trunc i32 %24 to i8
  %26 = call i64 @optsize(ptr noundef %23, i8 noundef signext %25, ptr noundef %4)
  store i64 %26, ptr %7, align 8, !tbaa !13
  %27 = load i64, ptr %5, align 8, !tbaa !13
  %28 = load i32, ptr %6, align 4, !tbaa !11
  %29 = load i64, ptr %7, align 8, !tbaa !13
  %30 = call i32 @gettoalign(i64 noundef %27, ptr noundef %3, i32 noundef %28, i64 noundef %29)
  %31 = sext i32 %30 to i64
  %32 = load i64, ptr %5, align 8, !tbaa !13
  %33 = add i64 %32, %31
  store i64 %33, ptr %5, align 8, !tbaa !13
  %34 = load i32, ptr %6, align 4, !tbaa !11
  %35 = icmp eq i32 %34, 115
  br i1 %35, label %36, label %39

36:                                               ; preds = %18
  %37 = load ptr, ptr %2, align 8, !tbaa !4
  %38 = call i32 @luaL_argerror(ptr noundef %37, i32 noundef 1, ptr noundef @.str.14)
  br label %49

39:                                               ; preds = %18
  %40 = load i32, ptr %6, align 4, !tbaa !11
  %41 = icmp eq i32 %40, 99
  br i1 %41, label %42, label %48

42:                                               ; preds = %39
  %43 = load i64, ptr %7, align 8, !tbaa !13
  %44 = icmp eq i64 %43, 0
  br i1 %44, label %45, label %48

45:                                               ; preds = %42
  %46 = load ptr, ptr %2, align 8, !tbaa !4
  %47 = call i32 @luaL_argerror(ptr noundef %46, i32 noundef 1, ptr noundef @.str.15)
  br label %48

48:                                               ; preds = %45, %42, %39
  br label %49

49:                                               ; preds = %48, %36
  %50 = call ptr @__ctype_b_loc() #7
  %51 = load ptr, ptr %50, align 8, !tbaa !28
  %52 = load i32, ptr %6, align 4, !tbaa !11
  %53 = sext i32 %52 to i64
  %54 = getelementptr inbounds i16, ptr %51, i64 %53
  %55 = load i16, ptr %54, align 2, !tbaa !30
  %56 = zext i16 %55 to i32
  %57 = and i32 %56, 8
  %58 = icmp ne i32 %57, 0
  br i1 %58, label %62, label %59

59:                                               ; preds = %49
  %60 = load ptr, ptr %2, align 8, !tbaa !4
  %61 = load i32, ptr %6, align 4, !tbaa !11
  call void @controloptions(ptr noundef %60, i32 noundef %61, ptr noundef %4, ptr noundef %3)
  br label %62

62:                                               ; preds = %59, %49
  %63 = load i64, ptr %7, align 8, !tbaa !13
  %64 = load i64, ptr %5, align 8, !tbaa !13
  %65 = add i64 %64, %63
  store i64 %65, ptr %5, align 8, !tbaa !13
  call void @llvm.lifetime.end.p0(i64 8, ptr %7) #6
  call void @llvm.lifetime.end.p0(i64 4, ptr %6) #6
  br label %14, !llvm.loop !33

66:                                               ; preds = %14
  %67 = load ptr, ptr %2, align 8, !tbaa !4
  %68 = load i64, ptr %5, align 8, !tbaa !13
  call void @lua_pushinteger(ptr noundef %67, i64 noundef %68)
  call void @llvm.lifetime.end.p0(i64 8, ptr %5) #6
  call void @llvm.lifetime.end.p0(i64 8, ptr %4) #6
  call void @llvm.lifetime.end.p0(i64 8, ptr %3) #6
  ret i32 1
}