; Function Attrs: nounwind uwtable
define internal noundef i32 @b_size(ptr noundef %0) #0 {
  %2 = alloca %struct.Header, align 4
  %3 = alloca ptr, align 8
  call void @llvm.lifetime.start.p0(i64 8, ptr nonnull %2) #7
  call void @llvm.lifetime.start.p0(i64 8, ptr nonnull %3) #7
  %4 = tail call ptr @luaL_checklstring(ptr noundef %0, i32 noundef 1, ptr noundef null) #7
  %5 = getelementptr inbounds nuw i8, ptr %2, i64 4
  store i32 1, ptr %5, align 4, !tbaa !9
  %6 = load i8, ptr %4, align 1, !tbaa !10
  %.not21 = icmp eq i8 %6, 0
  br i1 %.not21, label %._crit_edge, label %.lr.ph

.lr.ph:                                           ; preds = %1, %32
  %7 = phi i8 [ %36, %32 ], [ %6, %1 ]
  %8 = phi ptr [ %35, %32 ], [ %4, %1 ]
  %.022 = phi i64 [ %34, %32 ], [ 0, %1 ]
  %9 = getelementptr inbounds nuw i8, ptr %8, i64 1
  store ptr %9, ptr %3, align 8, !tbaa !11
  %10 = sext i8 %7 to i32
  %11 = call fastcc i64 @optsize(ptr noundef %0, i8 noundef signext %7, ptr noundef %3)
  %12 = icmp eq i64 %11, 0
  %13 = icmp eq i8 %7, 99
  %or.cond.i = or i1 %13, %12
  br i1 %or.cond.i, label %gettoalign.exit, label %14

14:                                               ; preds = %.lr.ph
  %.val = load i32, ptr %5, align 4
  %15 = sext i32 %.val to i64
  %spec.select.i = tail call i64 @llvm.umin.i64(i64 %11, i64 %15)
  %16 = add nsw i64 %spec.select.i, -1
  %17 = and i64 %16, %.022
  %18 = sub i64 %spec.select.i, %17
  %19 = and i64 %18, %16
  %sext = shl i64 %19, 32
  %20 = ashr exact i64 %sext, 32
  br label %gettoalign.exit

gettoalign.exit:                                  ; preds = %.lr.ph, %14
  %.010.i = phi i64 [ %20, %14 ], [ 0, %.lr.ph ]
  %21 = icmp eq i8 %7, 115
  br i1 %21, label %.sink.split, label %22

22:                                               ; preds = %gettoalign.exit
  %or.cond = and i1 %13, %12
  br i1 %or.cond, label %.sink.split, label %24

.sink.split:                                      ; preds = %22, %gettoalign.exit
  %.str.15.sink = phi ptr [ @.str.14, %gettoalign.exit ], [ @.str.15, %22 ]
  %23 = tail call i32 @luaL_argerror(ptr noundef %0, i32 noundef 1, ptr noundef nonnull %.str.15.sink) #7
  br label %24

24:                                               ; preds = %.sink.split, %22
  %25 = tail call ptr @__ctype_b_loc() #8
  %26 = load ptr, ptr %25, align 8, !tbaa !29
  %27 = sext i8 %7 to i64
  %28 = getelementptr inbounds i16, ptr %26, i64 %27
  %29 = load i16, ptr %28, align 2, !tbaa !31
  %30 = and i16 %29, 8
  %.not20 = icmp eq i16 %30, 0
  br i1 %.not20, label %31, label %32

31:                                               ; preds = %24
  call fastcc void @controloptions(ptr noundef %0, i32 noundef %10, ptr noundef %3, ptr noundef %2)
  br label %32

32:                                               ; preds = %31, %24
  %33 = add i64 %11, %.022
  %34 = add i64 %33, %.010.i
  %35 = load ptr, ptr %3, align 8, !tbaa !11
  %36 = load i8, ptr %35, align 1, !tbaa !10
  %.not = icmp eq i8 %36, 0
  br i1 %.not, label %._crit_edge, label %.lr.ph, !llvm.loop !36

._crit_edge:                                      ; preds = %32, %1
  %.0.lcssa = phi i64 [ 0, %1 ], [ %34, %32 ]
  tail call void @lua_pushinteger(ptr noundef %0, i64 noundef %.0.lcssa) #7
  call void @llvm.lifetime.end.p0(i64 8, ptr nonnull %3) #7
  call void @llvm.lifetime.end.p0(i64 8, ptr nonnull %2) #7
  ret i32 1
}